target datalayout = "e-m:e-p270:32:32-p271:32:32-p272:64:64-i64:64-i128:128-f80:128-n8:16:32:64-S128"
target triple = "x86_64-pc-linux-gnu"

%struct._zend_refcounted_h = type { i32, %union.anon.3 }
%union.anon.3 = type { i32 }
%struct._zend_string = type { %struct._zend_refcounted_h, i64, i64, [1 x i8] }

@hexconvtab = internal constant [17 x i8] c"0123456789abcdef\00", align 16

; Function Attrs: nounwind uwtable
define ptr @php_random_bin2hex_le(ptr noundef %0, i64 noundef %1) #0 {
  %3 = alloca ptr, align 8
  %4 = alloca i32, align 4
  %5 = alloca i64, align 8
  %6 = alloca i64, align 8
  %7 = alloca i64, align 8
  %8 = alloca i8, align 1
  %9 = alloca ptr, align 8
  %10 = alloca ptr, align 8
  %11 = alloca i64, align 8
  %12 = alloca ptr, align 8
  %13 = alloca i64, align 8
  %14 = alloca i64, align 8
  store ptr %0, ptr %10, align 8
  store i64 %1, ptr %11, align 8
  %15 = load i64, ptr %11, align 8
  store i64 %15, ptr %5, align 8
  store i64 2, ptr %6, align 8
  store i64 0, ptr %7, align 8
  store i8 0, ptr %8, align 1
  %16 = load i8, ptr %8, align 1
  %17 = trunc i8 %16 to i1
  br i1 %17, label %18, label %28

18:                                               ; preds = %2
  %19 = load i64, ptr %5, align 8
  %20 = load i64, ptr %6, align 8
  %21 = load i64, ptr %7, align 8
  %22 = add i64 24, %21
  %23 = add i64 %22, 1
  %24 = add i64 %23, 8
  %25 = sub i64 %24, 1
  %26 = and i64 %25, -8
  %27 = call noalias ptr @_safe_malloc(i64 noundef %19, i64 noundef %20, i64 noundef %26) #10
  br label %38

28:                                               ; preds = %2
  %29 = load i64, ptr %5, align 8
  %30 = load i64, ptr %6, align 8
  %31 = load i64, ptr %7, align 8
  %32 = add i64 24, %31
  %33 = add i64 %32, 1
  %34 = add i64 %33, 8
  %35 = sub i64 %34, 1
  %36 = and i64 %35, -8
  %37 = call noalias ptr @_safe_emalloc(i64 noundef %29, i64 noundef %30, i64 noundef %36) #10
  br label %38

38:                                               ; preds = %28, %18
  %39 = phi ptr [ %27, %18 ], [ %37, %28 ]
  store ptr %39, ptr %9, align 8
  %40 = load ptr, ptr %9, align 8
  store ptr %40, ptr %3, align 8
  store i32 1, ptr %4, align 4
  %41 = load i32, ptr %4, align 4
  %42 = load ptr, ptr %3, align 8
  store i32 %41, ptr %42, align 4
  %43 = load i8, ptr %8, align 1
  %44 = trunc i8 %43 to i1
  %45 = select i1 %44, i32 128, i32 0
  %46 = or i32 22, %45
  %47 = load ptr, ptr %9, align 8
  %48 = getelementptr inbounds %struct._zend_refcounted_h, ptr %47, i32 0, i32 1
  store i32 %46, ptr %48, align 4
  %49 = load ptr, ptr %9, align 8
  %50 = getelementptr inbounds %struct._zend_string, ptr %49, i32 0, i32 1
  store i64 0, ptr %50, align 8
  %51 = load i64, ptr %5, align 8
  %52 = load i64, ptr %6, align 8
  %53 = mul i64 %51, %52
  %54 = load i64, ptr %7, align 8
  %55 = add i64 %53, %54
  %56 = load ptr, ptr %9, align 8
  %57 = getelementptr inbounds %struct._zend_string, ptr %56, i32 0, i32 2
  store i64 %55, ptr %57, align 8
  %58 = load ptr, ptr %9, align 8
  store ptr %58, ptr %12, align 8
  store i64 0, ptr %13, align 8
  store i64 0, ptr %14, align 8
  br label %59

59:                                               ; preds = %92, %38
  %60 = load i64, ptr %14, align 8
  %61 = load i64, ptr %11, align 8
  %62 = icmp ult i64 %60, %61
  br i1 %62, label %63, label %95

63:                                               ; preds = %59
  %64 = load ptr, ptr %10, align 8
  %65 = load i64, ptr %14, align 8
  %66 = getelementptr inbounds i8, ptr %64, i64 %65
  %67 = load i8, ptr %66, align 1
  %68 = zext i8 %67 to i32
  %69 = ashr i32 %68, 4
  %70 = sext i32 %69 to i64
  %71 = getelementptr inbounds [17 x i8], ptr @hexconvtab, i64 0, i64 %70
  %72 = load i8, ptr %71, align 1
  %73 = load ptr, ptr %12, align 8
  %74 = getelementptr inbounds %struct._zend_string, ptr %73, i32 0, i32 3
  %75 = load i64, ptr %13, align 8
  %76 = add i64 %75, 1
  store i64 %76, ptr %13, align 8
  %77 = getelementptr inbounds [1 x i8], ptr %74, i64 0, i64 %75
  store i8 %72, ptr %77, align 1
  %78 = load ptr, ptr %10, align 8
  %79 = load i64, ptr %14, align 8
  %80 = getelementptr inbounds i8, ptr %78, i64 %79
  %81 = load i8, ptr %80, align 1
  %82 = zext i8 %81 to i32
  %83 = and i32 %82, 15
  %84 = sext i32 %83 to i64
  %85 = getelementptr inbounds [17 x i8], ptr @hexconvtab, i64 0, i64 %84
  %86 = load i8, ptr %85, align 1
  %87 = load ptr, ptr %12, align 8
  %88 = getelementptr inbounds %struct._zend_string, ptr %87, i32 0, i32 3
  %89 = load i64, ptr %13, align 8
  %90 = add i64 %89, 1
  store i64 %90, ptr %13, align 8
  %91 = getelementptr inbounds [1 x i8], ptr %88, i64 0, i64 %89
  store i8 %86, ptr %91, align 1
  br label %92

92:                                               ; preds = %63
  %93 = load i64, ptr %14, align 8
  %94 = add nsw i64 %93, 1
  store i64 %94, ptr %14, align 8
  br label %59

95:                                               ; preds = %59
  %96 = load ptr, ptr %12, align 8
  %97 = getelementptr inbounds %struct._zend_string, ptr %96, i32 0, i32 3
  %98 = load i64, ptr %13, align 8
  %99 = getelementptr inbounds [1 x i8], ptr %97, i64 0, i64 %98
  store i8 0, ptr %99, align 1
  %100 = load ptr, ptr %12, align 8
  ret ptr %100
}