; Function Attrs: nounwind uwtable
define noalias noundef ptr @php_random_bin2hex_le(ptr nocapture noundef readonly %0, i64 noundef %1) local_unnamed_addr #0 {
  %3 = tail call noalias ptr @_safe_emalloc(i64 noundef %1, i64 noundef 2, i64 noundef 32) #13
  store i32 1, ptr %3, align 4
  %4 = getelementptr inbounds i8, ptr %3, i64 4
  store i32 22, ptr %4, align 4
  %5 = getelementptr inbounds i8, ptr %3, i64 8
  store i64 0, ptr %5, align 8
  %6 = shl i64 %1, 1
  %7 = getelementptr inbounds i8, ptr %3, i64 16
  store i64 %6, ptr %7, align 8
  %.not = icmp eq i64 %1, 0
  br i1 %.not, label %._crit_edge, label %.lr.ph

.lr.ph:                                           ; preds = %2
  %8 = getelementptr inbounds i8, ptr %3, i64 24
  br label %9

9:                                                ; preds = %.lr.ph, %9
  %.034 = phi i64 [ 0, %.lr.ph ], [ %24, %9 ]
  %.03233 = phi i64 [ 0, %.lr.ph ], [ %22, %9 ]
  %10 = getelementptr inbounds i8, ptr %0, i64 %.034
  %11 = load i8, ptr %10, align 1
  %12 = lshr i8 %11, 4
  %13 = zext nneg i8 %12 to i64
  %14 = getelementptr inbounds [17 x i8], ptr @hexconvtab, i64 0, i64 %13
  %15 = load i8, ptr %14, align 1
  %16 = or disjoint i64 %.03233, 1
  %17 = getelementptr inbounds [1 x i8], ptr %8, i64 0, i64 %.03233
  store i8 %15, ptr %17, align 1
  %18 = and i8 %11, 15
  %19 = zext nneg i8 %18 to i64
  %20 = getelementptr inbounds [17 x i8], ptr @hexconvtab, i64 0, i64 %19
  %21 = load i8, ptr %20, align 1
  %22 = add i64 %.03233, 2
  %23 = getelementptr inbounds [1 x i8], ptr %8, i64 0, i64 %16
  store i8 %21, ptr %23, align 1
  %24 = add nuw nsw i64 %.034, 1
  %exitcond.not = icmp eq i64 %24, %1
  br i1 %exitcond.not, label %._crit_edge, label %9

._crit_edge:                                      ; preds = %9, %2
  %.032.lcssa = phi i64 [ 0, %2 ], [ %22, %9 ]
  %25 = getelementptr inbounds i8, ptr %3, i64 24
  %26 = getelementptr inbounds [1 x i8], ptr %25, i64 0, i64 %.032.lcssa
  store i8 0, ptr %26, align 1
  ret ptr %3
}